; ModuleID = '63/979.c'
source_filename = "63/979.c"
target datalayout = "e-m:e-p270:32:32-p271:32:32-p272:64:64-i64:64-f80:128-n8:16:32:64-S128"
target triple = "x86_64-pc-linux-gnu"

@.str = private unnamed_addr constant [6 x i8] c"%d %d\00", align 1
@.str.1 = private unnamed_addr constant [3 x i8] c"%d\00", align 1
@.str.2 = private unnamed_addr constant [4 x i8] c"%d \00", align 1
@.str.3 = private unnamed_addr constant [4 x i8] c"%d\0A\00", align 1

; Function Attrs: noinline nounwind uwtable
define dso_local i32 @main() #0 {
  %1 = alloca i32, align 4
  %2 = alloca [100 x [100 x i32]], align 16
  %3 = alloca [100 x [100 x i32]], align 16
  %4 = alloca [100 x [100 x i32]], align 16
  %5 = alloca i32, align 4
  %6 = alloca i32, align 4
  %7 = alloca i32, align 4
  %8 = alloca i32, align 4
  %9 = alloca i32, align 4
  %10 = alloca i32, align 4
  %11 = alloca i32, align 4
  %12 = alloca i32, align 4
  %13 = alloca i32, align 4
  %14 = alloca i32, align 4
  %15 = alloca i32, align 4
  %16 = alloca i32, align 4
  %17 = alloca i32, align 4
  %18 = alloca i32, align 4
  %19 = alloca i32, align 4
  %20 = alloca i32, align 4
  store i32 0, i32* %1, align 4
  %21 = bitcast [100 x [100 x i32]]* %4 to i8*
  call void @llvm.memset.p0i8.i64(i8* align 16 %21, i8 0, i64 40000, i1 false)
  %22 = call i32 (i8*, ...) @__isoc99_scanf(i8* getelementptr inbounds ([6 x i8], [6 x i8]* @.str, i64 0, i64 0), i32* %6, i32* %7)
  store i32 0, i32* %12, align 4
  br label %23

23:                                               ; preds = %46, %0
  %24 = load i32, i32* %12, align 4
  %25 = load i32, i32* %6, align 4
  %26 = sub nsw i32 %25, 1
  %27 = icmp sle i32 %24, %26
  br i1 %27, label %28, label %49

28:                                               ; preds = %23
  store i32 0, i32* %13, align 4
  br label %29

29:                                               ; preds = %42, %28
  %30 = load i32, i32* %13, align 4
  %31 = load i32, i32* %7, align 4
  %32 = sub nsw i32 %31, 1
  %33 = icmp sle i32 %30, %32
  br i1 %33, label %34, label %45

34:                                               ; preds = %29
  %35 = load i32, i32* %12, align 4
  %36 = sext i32 %35 to i64
  %37 = getelementptr inbounds [100 x [100 x i32]], [100 x [100 x i32]]* %2, i64 0, i64 %36
  %38 = load i32, i32* %13, align 4
  %39 = sext i32 %38 to i64
  %40 = getelementptr inbounds [100 x i32], [100 x i32]* %37, i64 0, i64 %39
  %41 = call i32 (i8*, ...) @__isoc99_scanf(i8* getelementptr inbounds ([3 x i8], [3 x i8]* @.str.1, i64 0, i64 0), i32* %40)
  br label %42

42:                                               ; preds = %34
  %43 = load i32, i32* %13, align 4
  %44 = add nsw i32 %43, 1
  store i32 %44, i32* %13, align 4
  br label %29

45:                                               ; preds = %29
  br label %46

46:                                               ; preds = %45
  %47 = load i32, i32* %12, align 4
  %48 = add nsw i32 %47, 1
  store i32 %48, i32* %12, align 4
  br label %23

49:                                               ; preds = %23
  %50 = call i32 (i8*, ...) @__isoc99_scanf(i8* getelementptr inbounds ([6 x i8], [6 x i8]* @.str, i64 0, i64 0), i32* %8, i32* %9)
  store i32 0, i32* %14, align 4
  br label %51

51:                                               ; preds = %74, %49
  %52 = load i32, i32* %14, align 4
  %53 = load i32, i32* %8, align 4
  %54 = sub nsw i32 %53, 1
  %55 = icmp sle i32 %52, %54
  br i1 %55, label %56, label %77

56:                                               ; preds = %51
  store i32 0, i32* %15, align 4
  br label %57

57:                                               ; preds = %70, %56
  %58 = load i32, i32* %15, align 4
  %59 = load i32, i32* %9, align 4
  %60 = sub nsw i32 %59, 1
  %61 = icmp sle i32 %58, %60
  br i1 %61, label %62, label %73

62:                                               ; preds = %57
  %63 = load i32, i32* %14, align 4
  %64 = sext i32 %63 to i64
  %65 = getelementptr inbounds [100 x [100 x i32]], [100 x [100 x i32]]* %3, i64 0, i64 %64
  %66 = load i32, i32* %15, align 4
  %67 = sext i32 %66 to i64
  %68 = getelementptr inbounds [100 x i32], [100 x i32]* %65, i64 0, i64 %67
  %69 = call i32 (i8*, ...) @__isoc99_scanf(i8* getelementptr inbounds ([3 x i8], [3 x i8]* @.str.1, i64 0, i64 0), i32* %68)
  br label %70

70:                                               ; preds = %62
  %71 = load i32, i32* %15, align 4
  %72 = add nsw i32 %71, 1
  store i32 %72, i32* %15, align 4
  br label %57

73:                                               ; preds = %57
  br label %74

74:                                               ; preds = %73
  %75 = load i32, i32* %14, align 4
  %76 = add nsw i32 %75, 1
  store i32 %76, i32* %14, align 4
  br label %51

77:                                               ; preds = %51
  store i32 0, i32* %16, align 4
  br label %78

78:                                               ; preds = %133, %77
  %79 = load i32, i32* %16, align 4
  %80 = load i32, i32* %6, align 4
  %81 = sub nsw i32 %80, 1
  %82 = icmp sle i32 %79, %81
  br i1 %82, label %83, label %136

83:                                               ; preds = %78
  store i32 0, i32* %17, align 4
  br label %84

84:                                               ; preds = %129, %83
  %85 = load i32, i32* %17, align 4
  %86 = load i32, i32* %9, align 4
  %87 = sub nsw i32 %86, 1
  %88 = icmp sle i32 %85, %87
  br i1 %88, label %89, label %132

89:                                               ; preds = %84
  store i32 0, i32* %18, align 4
  br label %90

90:                                               ; preds = %125, %89
  %91 = load i32, i32* %18, align 4
  %92 = load i32, i32* %8, align 4
  %93 = sub nsw i32 %92, 1
  %94 = icmp sle i32 %91, %93
  br i1 %94, label %95, label %128

95:                                               ; preds = %90
  %96 = load i32, i32* %16, align 4
  %97 = sext i32 %96 to i64
  %98 = getelementptr inbounds [100 x [100 x i32]], [100 x [100 x i32]]* %2, i64 0, i64 %97
  %99 = load i32, i32* %18, align 4
  %100 = sext i32 %99 to i64
  %101 = getelementptr inbounds [100 x i32], [100 x i32]* %98, i64 0, i64 %100
  %102 = load i32, i32* %101, align 4
  %103 = load i32, i32* %18, align 4
  %104 = sext i32 %103 to i64
  %105 = getelementptr inbounds [100 x [100 x i32]], [100 x [100 x i32]]* %3, i64 0, i64 %104
  %106 = load i32, i32* %17, align 4
  %107 = sext i32 %106 to i64
  %108 = getelementptr inbounds [100 x i32], [100 x i32]* %105, i64 0, i64 %107
  %109 = load i32, i32* %108, align 4
  %110 = mul nsw i32 %102, %109
  %111 = load i32, i32* %16, align 4
  %112 = sext i32 %111 to i64
  %113 = getelementptr inbounds [100 x [100 x i32]], [100 x [100 x i32]]* %4, i64 0, i64 %112
  %114 = load i32, i32* %17, align 4
  %115 = sext i32 %114 to i64
  %116 = getelementptr inbounds [100 x i32], [100 x i32]* %113, i64 0, i64 %115
  %117 = load i32, i32* %116, align 4
  %118 = add nsw i32 %110, %117
  %119 = load i32, i32* %16, align 4
  %120 = sext i32 %119 to i64
  %121 = getelementptr inbounds [100 x [100 x i32]], [100 x [100 x i32]]* %4, i64 0, i64 %120
  %122 = load i32, i32* %17, align 4
  %123 = sext i32 %122 to i64
  %124 = getelementptr inbounds [100 x i32], [100 x i32]* %121, i64 0, i64 %123
  store i32 %118, i32* %124, align 4
  br label %125

125:                                              ; preds = %95
  %126 = load i32, i32* %18, align 4
  %127 = add nsw i32 %126, 1
  store i32 %127, i32* %18, align 4
  br label %90

128:                                              ; preds = %90
  br label %129

129:                                              ; preds = %128
  %130 = load i32, i32* %17, align 4
  %131 = add nsw i32 %130, 1
  store i32 %131, i32* %17, align 4
  br label %84

132:                                              ; preds = %84
  br label %133

133:                                              ; preds = %132
  %134 = load i32, i32* %16, align 4
  %135 = add nsw i32 %134, 1
  store i32 %135, i32* %16, align 4
  br label %78

136:                                              ; preds = %78
  store i32 0, i32* %19, align 4
  br label %137

137:                                              ; preds = %170, %136
  %138 = load i32, i32* %19, align 4
  %139 = load i32, i32* %6, align 4
  %140 = sub nsw i32 %139, 1
  %141 = icmp sle i32 %138, %140
  br i1 %141, label %142, label %173

142:                                              ; preds = %137
  store i32 0, i32* %20, align 4
  br label %143

143:                                              ; preds = %157, %142
  %144 = load i32, i32* %20, align 4
  %145 = load i32, i32* %9, align 4
  %146 = sub nsw i32 %145, 2
  %147 = icmp sle i32 %144, %146
  br i1 %147, label %148, label %160

148:                                              ; preds = %143
  %149 = load i32, i32* %19, align 4
  %150 = sext i32 %149 to i64
  %151 = getelementptr inbounds [100 x [100 x i32]], [100 x [100 x i32]]* %4, i64 0, i64 %150
  %152 = load i32, i32* %20, align 4
  %153 = sext i32 %152 to i64
  %154 = getelementptr inbounds [100 x i32], [100 x i32]* %151, i64 0, i64 %153
  %155 = load i32, i32* %154, align 4
  %156 = call i32 (i8*, ...) @printf(i8* getelementptr inbounds ([4 x i8], [4 x i8]* @.str.2, i64 0, i64 0), i32 %155)
  br label %157

157:                                              ; preds = %148
  %158 = load i32, i32* %20, align 4
  %159 = add nsw i32 %158, 1
  store i32 %159, i32* %20, align 4
  br label %143

160:                                              ; preds = %143
  %161 = load i32, i32* %19, align 4
  %162 = sext i32 %161 to i64
  %163 = getelementptr inbounds [100 x [100 x i32]], [100 x [100 x i32]]* %4, i64 0, i64 %162
  %164 = load i32, i32* %9, align 4
  %165 = sub nsw i32 %164, 1
  %166 = sext i32 %165 to i64
  %167 = getelementptr inbounds [100 x i32], [100 x i32]* %163, i64 0, i64 %166
  %168 = load i32, i32* %167, align 4
  %169 = call i32 (i8*, ...) @printf(i8* getelementptr inbounds ([4 x i8], [4 x i8]* @.str.3, i64 0, i64 0), i32 %168)
  br label %170

170:                                              ; preds = %160
  %171 = load i32, i32* %19, align 4
  %172 = add nsw i32 %171, 1
  store i32 %172, i32* %19, align 4
  br label %137

173:                                              ; preds = %137
  ret i32 0
}

; Function Attrs: argmemonly nounwind willreturn
declare void @llvm.memset.p0i8.i64(i8* nocapture writeonly, i8, i64, i1 immarg) #1

declare dso_local i32 @__isoc99_scanf(i8*, ...) #2

declare dso_local i32 @printf(i8*, ...) #2


!llvm.module.flags = !{!0}
!llvm.ident = !{!1}

!0 = !{i32 1, !"wchar_size", i32 4}
!1 = !{!"clang version 10.0.0-4ubuntu1 "}
